target datalayout = "e-m:e-p270:32:32-p271:32:32-p272:64:64-i64:64-i128:128-f80:128-n8:16:32:64-S128"
target triple = "x86_64-pc-linux-gnu"

%struct._zval_struct = type { %union._zend_value, %union.anon.9, %union.anon.12 }
%union._zend_value = type { i64 }
%union.anon.9 = type { i32 }
%union.anon.12 = type { i32 }
%struct._zend_array = type { %struct._zend_refcounted_h, %union.anon.1, i32, %union.anon.2, i32, i32, i32, i32, i64, ptr }
%struct._zend_refcounted_h = type { i32, %union.anon.0 }
%union.anon.0 = type { i32 }
%union.anon.1 = type { i32 }
%union.anon.2 = type { ptr }
%struct._zend_fcall_info_cache = type { ptr, ptr, ptr, ptr, ptr }
%struct._zend_class_entry = type { i8, ptr, %union.anon, i32, i32, i32, i32, ptr, ptr, ptr, %struct._zend_array, %struct._zend_array, %struct._zend_array, ptr, ptr, ptr, ptr, ptr, ptr, ptr, ptr, ptr, ptr, ptr, ptr, ptr, ptr, ptr, ptr, ptr, ptr, ptr, %union.anon.3, ptr, ptr, ptr, ptr, i32, i32, %union.anon.4, ptr, ptr, ptr, ptr, i32, ptr, ptr, %union.anon.5 }
%union.anon = type { ptr }
%union.anon.3 = type { ptr }
%union.anon.4 = type { ptr }
%union.anon.5 = type { %struct.anon.6 }
%struct.anon.6 = type { ptr, i32, i32 }
%struct.xml_parser = type { ptr, ptr, %struct._zval_struct, ptr, %struct._zend_fcall_info_cache, %struct._zend_fcall_info_cache, %struct._zend_fcall_info_cache, %struct._zend_fcall_info_cache, %struct._zend_fcall_info_cache, %struct._zend_fcall_info_cache, %struct._zend_fcall_info_cache, %struct._zend_fcall_info_cache, %struct._zend_fcall_info_cache, %struct._zend_fcall_info_cache, %struct._zval_struct, %struct._zval_struct, i32, i32, i32, ptr, ptr, i8, i8, i8, i8, i8, ptr, %struct._zend_object }
%struct._zend_object = type { %struct._zend_refcounted_h, i32, ptr, ptr, ptr, [1 x %struct._zval_struct] }

; Function Attrs: nounwind uwtable
define internal ptr @xml_parser_create_object(ptr noundef %0) #0 {
  %2 = alloca ptr, align 8
  %3 = alloca i64, align 8
  %4 = alloca ptr, align 8
  %5 = alloca ptr, align 8
  %6 = alloca ptr, align 8
  %7 = alloca ptr, align 8
  store ptr %0, ptr %6, align 8
  %8 = load ptr, ptr %6, align 8
  store i64 576, ptr %3, align 8
  store ptr %8, ptr %4, align 8
  %9 = load i64, ptr %3, align 8
  %10 = load ptr, ptr %4, align 8
  store ptr %10, ptr %2, align 8
  %11 = load ptr, ptr %2, align 8
  %12 = getelementptr inbounds %struct._zend_class_entry, ptr %11, i32 0, i32 5
  %13 = load i32, ptr %12, align 8
  %14 = load ptr, ptr %2, align 8
  %15 = getelementptr inbounds %struct._zend_class_entry, ptr %14, i32 0, i32 4
  %16 = load i32, ptr %15, align 4
  %17 = and i32 %16, 2048
  %18 = icmp ne i32 %17, 0
  %19 = select i1 %18, i32 0, i32 1
  %20 = sub nsw i32 %13, %19
  %21 = sext i32 %20 to i64
  %22 = mul i64 16, %21
  %23 = add i64 %9, %22
  %24 = call noalias ptr @_emalloc(i64 noundef %23) #10
  store ptr %24, ptr %5, align 8
  %25 = load ptr, ptr %5, align 8
  %26 = load i64, ptr %3, align 8
  %27 = sub i64 %26, 56
  call void @llvm.memset.p0.i64(ptr align 1 %25, i8 0, i64 %27, i1 false)
  %28 = load ptr, ptr %5, align 8
  store ptr %28, ptr %7, align 8
  %29 = load ptr, ptr %7, align 8
  call void @llvm.memset.p0.i64(ptr align 8 %29, i8 0, i64 520, i1 false)
  %30 = load ptr, ptr %7, align 8
  %31 = getelementptr inbounds %struct.xml_parser, ptr %30, i32 0, i32 27
  %32 = load ptr, ptr %6, align 8
  call void @zend_object_std_init(ptr noundef %31, ptr noundef %32)
  %33 = load ptr, ptr %7, align 8
  %34 = getelementptr inbounds %struct.xml_parser, ptr %33, i32 0, i32 27
  %35 = load ptr, ptr %6, align 8
  call void @object_properties_init(ptr noundef %34, ptr noundef %35)
  %36 = load ptr, ptr %7, align 8
  %37 = getelementptr inbounds %struct.xml_parser, ptr %36, i32 0, i32 27
  ret ptr %37
}